Certificate:
    Data:
        Version: 3 (0x2)
        Serial Number:
            27:e3:47:4e:e4:26:4d:6a:73:c6:bf:17:55:d1:5c:5d:06:16:f8:e0
        Signature Algorithm: ecdsa-with-SHA256
        Issuer: C = FR, ST = France, L = Limoges, O = Master 1, OU = Service de Certification, CN = Mon AC du MAster 1, emailAddress = certifplus@certif.com
        Validity
            Not Before: Apr 12 06:26:57 2022 GMT
            Not After : May 12 06:26:57 2022 GMT
        Subject: C = FR, ST = France, L = Limoges, O = Master 1, OU = Service de Certification, CN = Mon AC du MAster 1, emailAddress = certifplus@certif.com
        Subject Public Key Info:
            Public Key Algorithm: id-ecPublicKey
                Public-Key: (256 bit)
                pub:
                    04:50:5e:5f:e7:08:31:4b:b2:f0:50:01:15:62:33:
                    10:ba:8d:fd:ff:76:a9:b3:03:d8:bb:df:3e:b7:28:
                    54:46:98:c5:85:4b:dd:86:99:54:eb:00:ca:fc:f6:
                    a1:2c:eb:0b:5c:2d:99:7e:a7:f3:78:6d:10:11:dd:
                    85:ce:18:a9:03
                ASN1 OID: prime256v1
                NIST CURVE: P-256
        X509v3 extensions:
            X509v3 Basic Constraints: critical
                CA:TRUE
            X509v3 Subject Key Identifier: 
                A3:90:B2:10:E1:ED:AC:20:1D:C1:BE:FE:70:58:97:81:53:83:70:DC
    Signature Algorithm: ecdsa-with-SHA256
         30:45:02:21:00:d5:af:57:a9:0a:ab:59:3c:db:7e:61:c3:b7:
         e9:33:2b:99:83:11:38:a9:18:b3:fa:d4:ab:e4:93:18:4f:40:
         71:02:20:71:29:4c:42:63:0e:c7:e7:94:f2:26:cd:8f:76:02:
         b4:da:bd:c1:5e:be:d2:0a:37:e2:f9:7a:63:c1:e0:94:d2
-----BEGIN CERTIFICATE-----
MIICiDCCAi6gAwIBAgIUJ+NHTuQmTWpzxr8XVdFcXQYW+OAwCgYIKoZIzj0EAwIw
gakxCzAJBgNVBAYTAkZSMQ8wDQYDVQQIEwZGcmFuY2UxEDAOBgNVBAcTB0xpbW9n
ZXMxETAPBgNVBAoTCE1hc3RlciAxMSEwHwYDVQQLExhTZXJ2aWNlIGRlIENlcnRp
ZmljYXRpb24xGzAZBgNVBAMTEk1vbiBBQyBkdSBNQXN0ZXIgMTEkMCIGCSqGSIb3
DQEJARYVY2VydGlmcGx1c0BjZXJ0aWYuY29tMB4XDTIyMDQxMjA2MjY1N1oXDTIy
MDUxMjA2MjY1N1owgakxCzAJBgNVBAYTAkZSMQ8wDQYDVQQIEwZGcmFuY2UxEDAO
BgNVBAcTB0xpbW9nZXMxETAPBgNVBAoTCE1hc3RlciAxMSEwHwYDVQQLExhTZXJ2
aWNlIGRlIENlcnRpZmljYXRpb24xGzAZBgNVBAMTEk1vbiBBQyBkdSBNQXN0ZXIg
MTEkMCIGCSqGSIb3DQEJARYVY2VydGlmcGx1c0BjZXJ0aWYuY29tMFkwEwYHKoZI
zj0CAQYIKoZIzj0DAQcDQgAEUF5f5wgxS7LwUAEVYjMQuo39/3apswPYu98+tyhU
RpjFhUvdhplU6wDK/PahLOsLXC2ZfqfzeG0QEd2FzhipA6MyMDAwDwYDVR0TAQH/
BAUwAwEB/zAdBgNVHQ4EFgQUo5CyEOHtrCAdwb7+cFiXgVODcNwwCgYIKoZIzj0E
AwIDSAAwRQIhANWvV6kKq1k8235hw7fpMyuZgxE4qRiz+tSr5JMYT0BxAiBxKUxC
Yw7H55TyJs2PdgK02r3BXr7SCjfi+XpjweCU0g==
-----END CERTIFICATE-----
