Certificate:
    Data:
        Version: 3 (0x2)
        Serial Number:
            0d:ea:e0:7a:b3:fa:50:1d:49:57:34:22:59:5d:7d:e2:c3:6c:b3:15
        Signature Algorithm: ecdsa-with-SHA256
        Issuer: C = FR, ST = FRANCE, L = LIMOGES, O = MASTER 1, OU = Service de Certification, CN = Mon AC du Master 1, emailAddress = certifplus@unilim.fr
        Validity
            Not Before: Apr 12 06:33:08 2022 GMT
            Not After : May 12 06:33:08 2022 GMT
        Subject: C = FR, ST = FRANCE, L = LIMOGES, O = MASTER 1, OU = Service de Certification, CN = Mon AC du Master 1, emailAddress = certifplus@unilim.fr
        Subject Public Key Info:
            Public Key Algorithm: id-ecPublicKey
                Public-Key: (256 bit)
                pub:
                    04:d3:2b:b3:bb:16:48:14:25:90:72:0b:8c:86:61:
                    da:2a:32:2b:14:ce:b4:6d:c9:29:99:57:54:23:fc:
                    2b:6d:87:58:e9:30:c7:b6:e2:2e:05:4f:ab:ae:3f:
                    cc:80:74:51:da:0d:43:14:42:9f:53:0f:17:7a:3b:
                    4e:3e:8d:7d:30
                ASN1 OID: prime256v1
                NIST CURVE: P-256
        X509v3 extensions:
            X509v3 Basic Constraints: critical
                CA:TRUE
            X509v3 Subject Key Identifier: 
                30:95:47:6D:94:AE:24:FF:92:E2:1B:4E:7A:CE:FE:C6:13:3A:4C:0F
    Signature Algorithm: ecdsa-with-SHA256
         30:44:02:20:5f:6f:4f:a7:7b:be:7f:6d:c2:1c:6b:df:73:1d:
         88:40:bb:8f:cc:09:aa:5e:af:e6:8c:0d:96:ec:f9:4d:c7:5b:
         02:20:41:6e:eb:33:19:a0:82:be:7a:67:61:ef:39:c8:2a:f0:
         46:be:55:5d:c2:f9:fc:2c:a6:64:9a:22:43:d9:b9:33
-----BEGIN CERTIFICATE-----
MIIChTCCAiygAwIBAgIUDergerP6UB1JVzQiWV194sNssxUwCgYIKoZIzj0EAwIw
gagxCzAJBgNVBAYTAkZSMQ8wDQYDVQQIEwZGUkFOQ0UxEDAOBgNVBAcTB0xJTU9H
RVMxETAPBgNVBAoTCE1BU1RFUiAxMSEwHwYDVQQLExhTZXJ2aWNlIGRlIENlcnRp
ZmljYXRpb24xGzAZBgNVBAMTEk1vbiBBQyBkdSBNYXN0ZXIgMTEjMCEGCSqGSIb3
DQEJARYUY2VydGlmcGx1c0B1bmlsaW0uZnIwHhcNMjIwNDEyMDYzMzA4WhcNMjIw
NTEyMDYzMzA4WjCBqDELMAkGA1UEBhMCRlIxDzANBgNVBAgTBkZSQU5DRTEQMA4G
A1UEBxMHTElNT0dFUzERMA8GA1UEChMITUFTVEVSIDExITAfBgNVBAsTGFNlcnZp
Y2UgZGUgQ2VydGlmaWNhdGlvbjEbMBkGA1UEAxMSTW9uIEFDIGR1IE1hc3RlciAx
MSMwIQYJKoZIhvcNAQkBFhRjZXJ0aWZwbHVzQHVuaWxpbS5mcjBZMBMGByqGSM49
AgEGCCqGSM49AwEHA0IABNMrs7sWSBQlkHILjIZh2ioyKxTOtG3JKZlXVCP8K22H
WOkwx7biLgVPq64/zIB0UdoNQxRCn1MPF3o7Tj6NfTCjMjAwMA8GA1UdEwEB/wQF
MAMBAf8wHQYDVR0OBBYEFDCVR22UriT/kuIbTnrO/sYTOkwPMAoGCCqGSM49BAMC
A0cAMEQCIF9vT6d7vn9twhxr33MdiEC7j8wJql6v5owNluz5TcdbAiBBbuszGaCC
vnpnYe85yCrwRr5VXcL5/CymZJoiQ9m5Mw==
-----END CERTIFICATE-----
