Certificate:
    Data:
        Version: 3 (0x2)
        Serial Number:
            30:e8:01:f8:08:2d:01:cb:88:71:47:b1:cc:21:4f:f4:db:5f:3f:7e
        Signature Algorithm: ecdsa-with-SHA256
        Issuer: C = fr, ST = fg, L = hh, O = ddf, OU = ggh, CN = hjj, emailAddress = dfg
        Validity
            Not Before: Apr 12 05:54:19 2022 GMT
            Not After : May 12 05:54:19 2022 GMT
        Subject: C = fr, ST = fg, L = hh, O = ddf, OU = ggh, CN = hjj, emailAddress = dfg
        Subject Public Key Info:
            Public Key Algorithm: id-ecPublicKey
                Public-Key: (256 bit)
                pub:
                    04:86:c1:e3:c9:90:a4:cd:03:bd:af:b9:e0:52:14:
                    41:06:eb:11:a2:20:19:77:41:63:69:f3:41:af:0f:
                    ca:b7:d1:ef:e4:12:00:b1:99:5e:f2:27:f3:7f:a8:
                    e6:63:67:20:58:c5:38:a0:4e:ff:7a:6b:53:a0:02:
                    70:44:cc:b3:02
                ASN1 OID: prime256v1
                NIST CURVE: P-256
        X509v3 extensions:
            X509v3 Basic Constraints: critical
                CA:TRUE
            X509v3 Subject Key Identifier: 
                7C:63:A6:D0:F3:34:57:F1:08:4A:41:CF:40:65:5C:A4:60:FC:42:A0
    Signature Algorithm: ecdsa-with-SHA256
         30:44:02:20:14:cd:51:26:d5:76:44:da:c3:8a:21:ee:75:7d:
         c8:b8:b7:a4:01:3c:e8:2e:04:59:22:23:65:91:e2:aa:b8:e3:
         02:20:19:9b:87:3e:de:e4:17:76:3a:a1:64:8f:c6:88:5c:d4:
         d1:d6:63:b4:21:10:c4:ff:48:18:13:70:3d:f9:a6:6e
-----BEGIN CERTIFICATE-----
MIIB/TCCAaSgAwIBAgIUMOgB+AgtAcuIcUexzCFP9NtfP34wCgYIKoZIzj0EAwIw
ZTELMAkGA1UEBhMCZnIxCzAJBgNVBAgTAmZnMQswCQYDVQQHEwJoaDEMMAoGA1UE
ChMDZGRmMQwwCgYDVQQLEwNnZ2gxDDAKBgNVBAMTA2hqajESMBAGCSqGSIb3DQEJ
ARYDZGZnMB4XDTIyMDQxMjA1NTQxOVoXDTIyMDUxMjA1NTQxOVowZTELMAkGA1UE
BhMCZnIxCzAJBgNVBAgTAmZnMQswCQYDVQQHEwJoaDEMMAoGA1UEChMDZGRmMQww
CgYDVQQLEwNnZ2gxDDAKBgNVBAMTA2hqajESMBAGCSqGSIb3DQEJARYDZGZnMFkw
EwYHKoZIzj0CAQYIKoZIzj0DAQcDQgAEhsHjyZCkzQO9r7ngUhRBBusRoiAZd0Fj
afNBrw/Kt9Hv5BIAsZle8ifzf6jmY2cgWMU4oE7/emtToAJwRMyzAqMyMDAwDwYD
VR0TAQH/BAUwAwEB/zAdBgNVHQ4EFgQUfGOm0PM0V/EISkHPQGVcpGD8QqAwCgYI
KoZIzj0EAwIDRwAwRAIgFM1RJtV2RNrDiiHudX3IuLekATzoLgRZIiNlkeKquOMC
IBmbhz7e5Bd2OqFkj8aIXNTR1mO0IRDE/0gYE3A9+aZu
-----END CERTIFICATE-----
