Certificate Request:
    Data:
        Version: 1 (0x0)
        Subject: C = FR, L = Limoges, O = CRYPTIS, OU = SecuTIC, CN = serveur
        Subject Public Key Info:
            Public Key Algorithm: id-ecPublicKey
                Public-Key: (256 bit)
                pub:
                    04:50:5e:5f:e7:08:31:4b:b2:f0:50:01:15:62:33:
                    10:ba:8d:fd:ff:76:a9:b3:03:d8:bb:df:3e:b7:28:
                    54:46:98:c5:85:4b:dd:86:99:54:eb:00:ca:fc:f6:
                    a1:2c:eb:0b:5c:2d:99:7e:a7:f3:78:6d:10:11:dd:
                    85:ce:18:a9:03
                ASN1 OID: prime256v1
                NIST CURVE: P-256
        Attributes:
        Requested Extensions:
            X509v3 Basic Constraints: 
                CA:FALSE
    Signature Algorithm: ecdsa-with-SHA256
         30:44:02:20:7a:b7:72:07:2a:9b:11:1f:53:71:80:2a:49:21:
         ca:42:5c:7a:1d:37:59:58:d6:a8:8a:1c:fb:52:fe:0a:8f:07:
         02:20:0f:64:bc:3b:c5:23:ba:77:db:fd:a1:4c:4e:c9:26:2e:
         80:a6:96:c9:fa:3a:15:f4:62:73:14:6c:20:e3:a2:af
-----BEGIN CERTIFICATE REQUEST-----
MIIBKzCB0wIBADBVMQswCQYDVQQGEwJGUjEQMA4GA1UEBwwHTGltb2dlczEQMA4G
A1UECgwHQ1JZUFRJUzEQMA4GA1UECwwHU2VjdVRJQzEQMA4GA1UEAwwHc2VydmV1
cjBZMBMGByqGSM49AgEGCCqGSM49AwEHA0IABFBeX+cIMUuy8FABFWIzELqN/f92
qbMD2LvfPrcoVEaYxYVL3YaZVOsAyvz2oSzrC1wtmX6n83htEBHdhc4YqQOgHDAa
BgkqhkiG9w0BCQ4xDTALMAkGA1UdEwQCMAAwCgYIKoZIzj0EAwIDRwAwRAIgerdy
ByqbER9TcYAqSSHKQlx6HTdZWNaoihz7Uv4KjwcCIA9kvDvFI7p32/2hTE7JJi6A
ppbJ+joV9GJzFGwg46Kv
-----END CERTIFICATE REQUEST-----
