Certificate:
    Data:
        Version: 3 (0x2)
        Serial Number:
            5e:40:85:b6:40:89:f8:5d:61:28:78:ed:a1:52:01:bd:af:bb:b6:89
        Signature Algorithm: ecdsa-with-SHA256
        Issuer: C = FR, ST = FRANCE, L = LIMOGES, O = MASTER 1, OU = Service de Certification, CN = Mon AC du Master 1, emailAddress = certifplus@unilim.fr
        Validity
            Not Before: Apr 12 06:33:13 2022 GMT
            Not After : Apr  9 06:33:13 2032 GMT
        Subject: C = FR, L = Limoges, O = CRYPTIS, OU = SecuTIC, CN = serveur
        Subject Public Key Info:
            Public Key Algorithm: id-ecPublicKey
                Public-Key: (256 bit)
                pub:
                    04:d3:2b:b3:bb:16:48:14:25:90:72:0b:8c:86:61:
                    da:2a:32:2b:14:ce:b4:6d:c9:29:99:57:54:23:fc:
                    2b:6d:87:58:e9:30:c7:b6:e2:2e:05:4f:ab:ae:3f:
                    cc:80:74:51:da:0d:43:14:42:9f:53:0f:17:7a:3b:
                    4e:3e:8d:7d:30
                ASN1 OID: prime256v1
                NIST CURVE: P-256
        X509v3 extensions:
            X509v3 Basic Constraints: critical
                CA:FALSE
    Signature Algorithm: ecdsa-with-SHA256
         30:45:02:20:5f:86:c8:10:ae:8a:16:9a:de:81:45:3f:83:36:
         4e:03:e7:e0:de:18:24:18:79:6a:f4:bb:5f:eb:4a:86:7d:68:
         02:21:00:e9:11:7a:23:81:39:89:24:2d:10:8f:4a:47:46:c4:
         af:4b:6f:68:6e:99:ed:69:2a:8f:d5:0f:a8:1d:4a:09:f7
-----BEGIN CERTIFICATE-----
MIICEDCCAbagAwIBAgIUXkCFtkCJ+F1hKHjtoVIBva+7tokwCgYIKoZIzj0EAwIw
gagxCzAJBgNVBAYTAkZSMQ8wDQYDVQQIEwZGUkFOQ0UxEDAOBgNVBAcTB0xJTU9H
RVMxETAPBgNVBAoTCE1BU1RFUiAxMSEwHwYDVQQLExhTZXJ2aWNlIGRlIENlcnRp
ZmljYXRpb24xGzAZBgNVBAMTEk1vbiBBQyBkdSBNYXN0ZXIgMTEjMCEGCSqGSIb3
DQEJARYUY2VydGlmcGx1c0B1bmlsaW0uZnIwHhcNMjIwNDEyMDYzMzEzWhcNMzIw
NDA5MDYzMzEzWjBVMQswCQYDVQQGEwJGUjEQMA4GA1UEBwwHTGltb2dlczEQMA4G
A1UECgwHQ1JZUFRJUzEQMA4GA1UECwwHU2VjdVRJQzEQMA4GA1UEAwwHc2VydmV1
cjBZMBMGByqGSM49AgEGCCqGSM49AwEHA0IABNMrs7sWSBQlkHILjIZh2ioyKxTO
tG3JKZlXVCP8K22HWOkwx7biLgVPq64/zIB0UdoNQxRCn1MPF3o7Tj6NfTCjEDAO
MAwGA1UdEwEB/wQCMAAwCgYIKoZIzj0EAwIDSAAwRQIgX4bIEK6KFpregUU/gzZO
A+fg3hgkGHlq9Ltf60qGfWgCIQDpEXojgTmJJC0Qj0pHRsSvS29obpntaSqP1Q+o
HUoJ9w==
-----END CERTIFICATE-----
