Certificate:
    Data:
        Version: 3 (0x2)
        Serial Number:
            1d:ee:0d:bc:77:4f:80:4a:a9:12:2b:c9:72:50:f9:51:03:81:d1:e5
        Signature Algorithm: ecdsa-with-SHA256
        Issuer: C = FR, ST = France, L = Limoges, O = Master 1, OU = Service de Certification, CN = Mon AC du MAster 1, emailAddress = certifplus@certif.com
        Validity
            Not Before: Apr 12 06:27:08 2022 GMT
            Not After : Apr  9 06:27:08 2032 GMT
        Subject: C = FR, L = Limoges, O = CRYPTIS, OU = SecuTIC, CN = serveur
        Subject Public Key Info:
            Public Key Algorithm: id-ecPublicKey
                Public-Key: (256 bit)
                pub:
                    04:50:5e:5f:e7:08:31:4b:b2:f0:50:01:15:62:33:
                    10:ba:8d:fd:ff:76:a9:b3:03:d8:bb:df:3e:b7:28:
                    54:46:98:c5:85:4b:dd:86:99:54:eb:00:ca:fc:f6:
                    a1:2c:eb:0b:5c:2d:99:7e:a7:f3:78:6d:10:11:dd:
                    85:ce:18:a9:03
                ASN1 OID: prime256v1
                NIST CURVE: P-256
        X509v3 extensions:
            X509v3 Basic Constraints: critical
                CA:FALSE
    Signature Algorithm: ecdsa-with-SHA256
         30:45:02:20:4a:60:8c:cf:d0:1d:2a:32:6c:b8:d1:14:7c:d8:
         4b:16:5e:cd:fa:ba:f8:92:39:f3:e9:eb:2a:67:d0:df:ef:19:
         02:21:00:ab:b4:1d:d1:da:a6:be:8a:99:a3:b9:3b:ee:c2:76:
         04:55:00:86:d2:91:d9:cf:6a:14:20:3a:8d:a8:bc:b2:1c
-----BEGIN CERTIFICATE-----
MIICETCCAbegAwIBAgIUHe4NvHdPgEqpEivJclD5UQOB0eUwCgYIKoZIzj0EAwIw
gakxCzAJBgNVBAYTAkZSMQ8wDQYDVQQIEwZGcmFuY2UxEDAOBgNVBAcTB0xpbW9n
ZXMxETAPBgNVBAoTCE1hc3RlciAxMSEwHwYDVQQLExhTZXJ2aWNlIGRlIENlcnRp
ZmljYXRpb24xGzAZBgNVBAMTEk1vbiBBQyBkdSBNQXN0ZXIgMTEkMCIGCSqGSIb3
DQEJARYVY2VydGlmcGx1c0BjZXJ0aWYuY29tMB4XDTIyMDQxMjA2MjcwOFoXDTMy
MDQwOTA2MjcwOFowVTELMAkGA1UEBhMCRlIxEDAOBgNVBAcMB0xpbW9nZXMxEDAO
BgNVBAoMB0NSWVBUSVMxEDAOBgNVBAsMB1NlY3VUSUMxEDAOBgNVBAMMB3NlcnZl
dXIwWTATBgcqhkjOPQIBBggqhkjOPQMBBwNCAARQXl/nCDFLsvBQARViMxC6jf3/
dqmzA9i73z63KFRGmMWFS92GmVTrAMr89qEs6wtcLZl+p/N4bRAR3YXOGKkDoxAw
DjAMBgNVHRMBAf8EAjAAMAoGCCqGSM49BAMCA0gAMEUCIEpgjM/QHSoybLjRFHzY
SxZezfq6+JI58+nrKmfQ3+8ZAiEAq7Qd0dqmvoqZo7k77sJ2BFUAhtKR2c9qFCA6
jai8shw=
-----END CERTIFICATE-----
