Certificate Request:
    Data:
        Version: 1 (0x0)
        Subject: C = FR, L = Limoges, O = CRYPTIS, OU = SecuTIC, CN = serveur
        Subject Public Key Info:
            Public Key Algorithm: id-ecPublicKey
                Public-Key: (256 bit)
                pub:
                    04:86:c1:e3:c9:90:a4:cd:03:bd:af:b9:e0:52:14:
                    41:06:eb:11:a2:20:19:77:41:63:69:f3:41:af:0f:
                    ca:b7:d1:ef:e4:12:00:b1:99:5e:f2:27:f3:7f:a8:
                    e6:63:67:20:58:c5:38:a0:4e:ff:7a:6b:53:a0:02:
                    70:44:cc:b3:02
                ASN1 OID: prime256v1
                NIST CURVE: P-256
        Attributes:
        Requested Extensions:
            X509v3 Basic Constraints: 
                CA:FALSE
    Signature Algorithm: ecdsa-with-SHA256
         30:46:02:21:00:fa:e3:2f:b5:d3:83:26:c0:3d:d3:aa:c2:7b:
         84:25:d4:21:55:77:d8:16:fb:66:38:0b:ed:b7:45:10:04:dd:
         61:02:21:00:b9:b6:f6:3b:1f:a5:83:54:05:09:dc:e4:84:d4:
         20:42:df:6c:37:b1:21:31:1b:b0:50:7f:b4:4f:e1:aa:a1:84
-----BEGIN CERTIFICATE REQUEST-----
MIIBLTCB0wIBADBVMQswCQYDVQQGEwJGUjEQMA4GA1UEBwwHTGltb2dlczEQMA4G
A1UECgwHQ1JZUFRJUzEQMA4GA1UECwwHU2VjdVRJQzEQMA4GA1UEAwwHc2VydmV1
cjBZMBMGByqGSM49AgEGCCqGSM49AwEHA0IABIbB48mQpM0Dva+54FIUQQbrEaIg
GXdBY2nzQa8PyrfR7+QSALGZXvIn83+o5mNnIFjFOKBO/3prU6ACcETMswKgHDAa
BgkqhkiG9w0BCQ4xDTALMAkGA1UdEwQCMAAwCgYIKoZIzj0EAwIDSQAwRgIhAPrj
L7XTgybAPdOqwnuEJdQhVXfYFvtmOAvtt0UQBN1hAiEAubb2Ox+lg1QFCdzkhNQg
Qt9sN7EhMRuwUH+0T+GqoYQ=
-----END CERTIFICATE REQUEST-----
