Certificate:
    Data:
        Version: 3 (0x2)
        Serial Number:
            70:78:af:14:66:fa:aa:38:ae:c6:07:f1:0c:f7:d8:87:c4:72:76:cb
        Signature Algorithm: ecdsa-with-SHA256
        Issuer: C = fr, ST = fg, L = hh, O = ddf, OU = ggh, CN = hjj, emailAddress = dfg
        Validity
            Not Before: Apr 12 05:54:23 2022 GMT
            Not After : Apr  9 05:54:23 2032 GMT
        Subject: C = FR, L = Limoges, O = CRYPTIS, OU = SecuTIC, CN = serveur
        Subject Public Key Info:
            Public Key Algorithm: id-ecPublicKey
                Public-Key: (256 bit)
                pub:
                    04:86:c1:e3:c9:90:a4:cd:03:bd:af:b9:e0:52:14:
                    41:06:eb:11:a2:20:19:77:41:63:69:f3:41:af:0f:
                    ca:b7:d1:ef:e4:12:00:b1:99:5e:f2:27:f3:7f:a8:
                    e6:63:67:20:58:c5:38:a0:4e:ff:7a:6b:53:a0:02:
                    70:44:cc:b3:02
                ASN1 OID: prime256v1
                NIST CURVE: P-256
        X509v3 extensions:
            X509v3 Basic Constraints: critical
                CA:FALSE
    Signature Algorithm: ecdsa-with-SHA256
         30:45:02:20:20:56:8e:c8:fd:da:e3:d1:a4:bc:33:c5:30:c6:
         f8:94:11:39:1d:1c:4c:5e:82:47:dd:42:61:76:c3:5b:da:27:
         02:21:00:a5:93:c6:aa:aa:a4:ce:e0:36:5c:cd:11:a7:94:f6:
         2e:48:e1:ba:bb:fa:36:b6:0a:6a:00:22:b9:f5:80:c6:60
-----BEGIN CERTIFICATE-----
MIIBzDCCAXKgAwIBAgIUcHivFGb6qjiuxgfxDPfYh8RydsswCgYIKoZIzj0EAwIw
ZTELMAkGA1UEBhMCZnIxCzAJBgNVBAgTAmZnMQswCQYDVQQHEwJoaDEMMAoGA1UE
ChMDZGRmMQwwCgYDVQQLEwNnZ2gxDDAKBgNVBAMTA2hqajESMBAGCSqGSIb3DQEJ
ARYDZGZnMB4XDTIyMDQxMjA1NTQyM1oXDTMyMDQwOTA1NTQyM1owVTELMAkGA1UE
BhMCRlIxEDAOBgNVBAcMB0xpbW9nZXMxEDAOBgNVBAoMB0NSWVBUSVMxEDAOBgNV
BAsMB1NlY3VUSUMxEDAOBgNVBAMMB3NlcnZldXIwWTATBgcqhkjOPQIBBggqhkjO
PQMBBwNCAASGwePJkKTNA72vueBSFEEG6xGiIBl3QWNp80GvD8q30e/kEgCxmV7y
J/N/qOZjZyBYxTigTv96a1OgAnBEzLMCoxAwDjAMBgNVHRMBAf8EAjAAMAoGCCqG
SM49BAMCA0gAMEUCICBWjsj92uPRpLwzxTDG+JQROR0cTF6CR91CYXbDW9onAiEA
pZPGqqqkzuA2XM0Rp5T2Lkjhurv6NrYKagAiufWAxmA=
-----END CERTIFICATE-----
