Certificate Request:
    Data:
        Version: 1 (0x0)
        Subject: C = FR, L = Limoges, O = CRYPTIS, OU = SecuTIC, CN = serveur
        Subject Public Key Info:
            Public Key Algorithm: id-ecPublicKey
                Public-Key: (256 bit)
                pub:
                    04:d3:2b:b3:bb:16:48:14:25:90:72:0b:8c:86:61:
                    da:2a:32:2b:14:ce:b4:6d:c9:29:99:57:54:23:fc:
                    2b:6d:87:58:e9:30:c7:b6:e2:2e:05:4f:ab:ae:3f:
                    cc:80:74:51:da:0d:43:14:42:9f:53:0f:17:7a:3b:
                    4e:3e:8d:7d:30
                ASN1 OID: prime256v1
                NIST CURVE: P-256
        Attributes:
        Requested Extensions:
            X509v3 Basic Constraints: 
                CA:FALSE
    Signature Algorithm: ecdsa-with-SHA256
         30:45:02:21:00:d3:a9:4b:d1:35:ae:2d:4e:93:77:4b:a4:a2:
         ac:66:56:e4:61:0b:45:50:60:8c:14:6b:bb:6d:2b:25:f8:17:
         95:02:20:39:9e:5f:f3:a8:29:92:cc:2e:8c:ca:26:54:3f:7d:
         5b:c1:11:8c:e9:30:c0:3c:f1:9e:14:39:ee:0e:ef:06:36
-----BEGIN CERTIFICATE REQUEST-----
MIIBLDCB0wIBADBVMQswCQYDVQQGEwJGUjEQMA4GA1UEBwwHTGltb2dlczEQMA4G
A1UECgwHQ1JZUFRJUzEQMA4GA1UECwwHU2VjdVRJQzEQMA4GA1UEAwwHc2VydmV1
cjBZMBMGByqGSM49AgEGCCqGSM49AwEHA0IABNMrs7sWSBQlkHILjIZh2ioyKxTO
tG3JKZlXVCP8K22HWOkwx7biLgVPq64/zIB0UdoNQxRCn1MPF3o7Tj6NfTCgHDAa
BgkqhkiG9w0BCQ4xDTALMAkGA1UdEwQCMAAwCgYIKoZIzj0EAwIDSAAwRQIhANOp
S9E1ri1Ok3dLpKKsZlbkYQtFUGCMFGu7bSsl+BeVAiA5nl/zqCmSzC6MyiZUP31b
wRGM6TDAPPGeFDnuDu8GNg==
-----END CERTIFICATE REQUEST-----
