Certificate:
    Data:
        Version: 3 (0x2)
        Serial Number:
            6b:52:fa:44:99:3f:b5:5c:e2:5b:de:55:99:7b:1e:be:50:46:67:45
        Signature Algorithm: ecdsa-with-SHA256
        Issuer: C = FR, L = Limoges, O = CRYPTIS, OU = SecuTIC, CN = ACSECUTIC
        Validity
            Not Before: Apr  6 06:32:00 2022 GMT
            Not After : May  6 06:32:00 2022 GMT
        Subject: C = FR, L = Limoges, O = CRYPTIS, OU = SecuTIC, CN = ACSECUTIC
        Subject Public Key Info:
            Public Key Algorithm: id-ecPublicKey
                Public-Key: (256 bit)
                pub:
                    04:07:70:89:2f:9e:2e:3b:15:a5:e9:aa:f3:9b:2c:
                    80:04:07:99:51:3a:35:c8:48:60:07:10:28:55:70:
                    ac:db:7e:1c:aa:6d:59:f3:20:e0:e5:21:ed:69:0e:
                    1f:78:c3:bd:d9:f5:53:8a:3b:50:78:d1:fb:73:8d:
                    64:00:47:a2:de
                ASN1 OID: prime256v1
                NIST CURVE: P-256
        X509v3 extensions:
            X509v3 Basic Constraints: 
                CA:TRUE
    Signature Algorithm: ecdsa-with-SHA256
         30:45:02:21:00:db:44:38:2a:0e:a1:67:2c:f7:5d:7c:81:67:
         5b:5d:54:38:98:cc:3b:eb:f8:88:c3:ab:6a:73:39:bb:a4:fa:
         92:02:20:5e:25:e7:b6:71:0a:79:aa:80:d1:07:22:e7:7e:3c:
         ca:d5:48:d8:e5:5d:42:3a:c3:14:a9:2b:3c:cf:c7:0b:e5
-----BEGIN CERTIFICATE-----
MIIBwDCCAWagAwIBAgIUa1L6RJk/tVziW95VmXsevlBGZ0UwCgYIKoZIzj0EAwIw
VzELMAkGA1UEBhMCRlIxEDAOBgNVBAcMB0xpbW9nZXMxEDAOBgNVBAoMB0NSWVBU
SVMxEDAOBgNVBAsMB1NlY3VUSUMxEjAQBgNVBAMMCUFDU0VDVVRJQzAeFw0yMjA0
MDYwNjMyMDBaFw0yMjA1MDYwNjMyMDBaMFcxCzAJBgNVBAYTAkZSMRAwDgYDVQQH
DAdMaW1vZ2VzMRAwDgYDVQQKDAdDUllQVElTMRAwDgYDVQQLDAdTZWN1VElDMRIw
EAYDVQQDDAlBQ1NFQ1VUSUMwWTATBgcqhkjOPQIBBggqhkjOPQMBBwNCAAQHcIkv
ni47FaXpqvObLIAEB5lROjXISGAHEChVcKzbfhyqbVnzIODlIe1pDh94w73Z9VOK
O1B40ftzjWQAR6LeoxAwDjAMBgNVHRMEBTADAQH/MAoGCCqGSM49BAMCA0gAMEUC
IQDbRDgqDqFnLPddfIFnW11UOJjMO+v4iMOranM5u6T6kgIgXiXntnEKeaqA0Qci
5348ytVI2OVdQjrDFKkrPM/HC+U=
-----END CERTIFICATE-----
