Certificate:
    Data:
        Version: 3 (0x2)
        Serial Number:
            22:79:72:57:e2:a5:25:f4:30:5d:29:ec:6a:d2:a4:a1:b4:92:18:b6
        Signature Algorithm: ecdsa-with-SHA256
        Issuer: C = FR, L = Limoges, O = CRYPTIS, OU = CertifPlus, CN = AC_CertifPlus
        Validity
            Not Before: Apr  5 19:23:12 2022 GMT
            Not After : May  5 19:23:12 2022 GMT
        Subject: C = FR, L = Limoges, O = CRYPTIS, OU = CertifPlus, CN = AC_CertifPlus
        Subject Public Key Info:
            Public Key Algorithm: id-ecPublicKey
                Public-Key: (256 bit)
                pub:
                    04:22:c4:81:15:88:e0:40:9e:a8:bb:97:f5:df:c2:
                    c2:0f:56:10:c2:15:72:8a:36:eb:e3:a3:6d:d4:3c:
                    42:8f:a5:98:53:2a:23:41:ea:da:d0:e5:43:f8:02:
                    c9:48:7a:a4:ce:71:78:dc:ad:86:09:c7:53:56:11:
                    cc:76:70:7d:e6
                ASN1 OID: prime256v1
                NIST CURVE: P-256
        X509v3 extensions:
            X509v3 Basic Constraints: 
                CA:TRUE
    Signature Algorithm: ecdsa-with-SHA256
         30:46:02:21:00:e2:f9:30:e2:c1:37:80:2a:9e:54:2a:2d:95:
         d3:a9:d5:3d:28:20:15:4b:cd:cd:64:8c:3f:8a:69:08:99:d1:
         46:02:21:00:80:8c:5a:19:d7:3f:10:ae:bd:c0:ef:67:84:95:
         4f:cc:9a:55:95:5f:85:29:41:34:a1:7f:ea:f0:b7:b7:f0:91
-----BEGIN CERTIFICATE-----
MIIBzzCCAXSgAwIBAgIUInlyV+KlJfQwXSnsatKkobSSGLYwCgYIKoZIzj0EAwIw
XjELMAkGA1UEBhMCRlIxEDAOBgNVBAcMB0xpbW9nZXMxEDAOBgNVBAoMB0NSWVBU
SVMxEzARBgNVBAsMCkNlcnRpZlBsdXMxFjAUBgNVBAMMDUFDX0NlcnRpZlBsdXMw
HhcNMjIwNDA1MTkyMzEyWhcNMjIwNTA1MTkyMzEyWjBeMQswCQYDVQQGEwJGUjEQ
MA4GA1UEBwwHTGltb2dlczEQMA4GA1UECgwHQ1JZUFRJUzETMBEGA1UECwwKQ2Vy
dGlmUGx1czEWMBQGA1UEAwwNQUNfQ2VydGlmUGx1czBZMBMGByqGSM49AgEGCCqG
SM49AwEHA0IABCLEgRWI4ECeqLuX9d/Cwg9WEMIVcoo26+OjbdQ8Qo+lmFMqI0Hq
2tDlQ/gCyUh6pM5xeNythgnHU1YRzHZwfeajEDAOMAwGA1UdEwQFMAMBAf8wCgYI
KoZIzj0EAwIDSQAwRgIhAOL5MOLBN4AqnlQqLZXTqdU9KCAVS83NZIw/imkImdFG
AiEAgIxaGdc/EK69wO9nhJVPzJpVlV+FKUE0oX/q8Le38JE=
-----END CERTIFICATE-----
