Certificate:
    Data:
        Version: 3 (0x2)
        Serial Number:
            24:03:90:8c:4e:5a:64:5e:2a:27:c5:b5:30:79:e2:7d:33:de:66:67
        Signature Algorithm: ecdsa-with-SHA256
        Issuer: C = FR, L = Limoges, O = CRYPTIS, OU = CertifPlus, CN = AC_CertifPlus
        Validity
            Not Before: Apr 11 19:59:04 2022 GMT
            Not After : Apr 11 19:59:04 2023 GMT
        Subject: C = FR, L = Limoges, O = CertifPlus, OU = Security_departement, CN = CertifPlus_certif
        Subject Public Key Info:
            Public Key Algorithm: id-ecPublicKey
                Public-Key: (256 bit)
                pub:
                    04:8c:ab:ae:ec:ac:53:ca:07:3b:bf:8e:0f:f9:13:
                    43:80:b1:48:c6:35:ac:30:5f:ba:7d:6b:89:0d:f0:
                    b4:8a:41:1a:63:fe:7b:c5:0f:88:cf:a9:af:59:c1:
                    a2:20:20:33:ff:d0:f0:52:ea:21:5d:f6:1d:e6:34:
                    1f:e1:6d:b0:3b
                ASN1 OID: prime256v1
                NIST CURVE: P-256
        X509v3 extensions:
            X509v3 Basic Constraints: critical
                CA:FALSE
    Signature Algorithm: ecdsa-with-SHA256
         30:45:02:20:53:c7:ff:03:72:d2:29:72:ba:f5:7a:9b:bb:4a:
         9a:2f:77:bf:b2:79:8a:51:77:a8:05:4b:9f:0c:0e:27:db:94:
         02:21:00:a2:d1:7f:6d:13:d6:ce:0c:29:6a:17:cb:df:1d:b7:
         7e:cb:ed:6f:5a:57:19:23:78:cc:c8:b2:dd:0d:d2:41:1c
-----BEGIN CERTIFICATE-----
MIIB3zCCAYWgAwIBAgIUJAOQjE5aZF4qJ8W1MHnifTPeZmcwCgYIKoZIzj0EAwIw
XjELMAkGA1UEBhMCRlIxEDAOBgNVBAcMB0xpbW9nZXMxEDAOBgNVBAoMB0NSWVBU
SVMxEzARBgNVBAsMCkNlcnRpZlBsdXMxFjAUBgNVBAMMDUFDX0NlcnRpZlBsdXMw
HhcNMjIwNDExMTk1OTA0WhcNMjMwNDExMTk1OTA0WjBvMQswCQYDVQQGEwJGUjEQ
MA4GA1UEBwwHTGltb2dlczETMBEGA1UECgwKQ2VydGlmUGx1czEdMBsGA1UECwwU
U2VjdXJpdHlfZGVwYXJ0ZW1lbnQxGjAYBgNVBAMMEUNlcnRpZlBsdXNfY2VydGlm
MFkwEwYHKoZIzj0CAQYIKoZIzj0DAQcDQgAEjKuu7KxTygc7v44P+RNDgLFIxjWs
MF+6fWuJDfC0ikEaY/57xQ+Iz6mvWcGiICAz/9DwUuohXfYd5jQf4W2wO6MQMA4w
DAYDVR0TAQH/BAIwADAKBggqhkjOPQQDAgNIADBFAiBTx/8DctIpcrr1epu7Spov
d7+yeYpRd6gFS58MDifblAIhAKLRf20T1s4MKWoXy98dt37L7W9aVxkjeMzIst0N
0kEc
-----END CERTIFICATE-----
