Certificate Request:
    Data:
        Version: 1 (0x0)
        Subject: C = FR, L = Limoges, O = CertifPlus, OU = Security_departement, CN = CertifPlus_certif
        Subject Public Key Info:
            Public Key Algorithm: id-ecPublicKey
                Public-Key: (256 bit)
                pub:
                    04:8c:ab:ae:ec:ac:53:ca:07:3b:bf:8e:0f:f9:13:
                    43:80:b1:48:c6:35:ac:30:5f:ba:7d:6b:89:0d:f0:
                    b4:8a:41:1a:63:fe:7b:c5:0f:88:cf:a9:af:59:c1:
                    a2:20:20:33:ff:d0:f0:52:ea:21:5d:f6:1d:e6:34:
                    1f:e1:6d:b0:3b
                ASN1 OID: prime256v1
                NIST CURVE: P-256
        Attributes:
        Requested Extensions:
            X509v3 Basic Constraints: 
                CA:FALSE
    Signature Algorithm: ecdsa-with-SHA256
         30:45:02:20:7b:cb:4d:a9:2c:c5:b4:74:c5:c7:02:eb:7b:5d:
         3e:4f:a7:f4:28:40:d1:f6:98:b5:b9:1f:ec:cd:ef:62:da:a6:
         02:21:00:88:b5:d4:06:47:af:f1:82:d5:d7:3d:77:b8:0d:a0:
         47:95:ca:b6:be:7c:83:9c:e3:96:36:04:c5:ce:b1:f3:43
-----BEGIN CERTIFICATE REQUEST-----
MIIBRjCB7QIBADBvMQswCQYDVQQGEwJGUjEQMA4GA1UEBwwHTGltb2dlczETMBEG
A1UECgwKQ2VydGlmUGx1czEdMBsGA1UECwwUU2VjdXJpdHlfZGVwYXJ0ZW1lbnQx
GjAYBgNVBAMMEUNlcnRpZlBsdXNfY2VydGlmMFkwEwYHKoZIzj0CAQYIKoZIzj0D
AQcDQgAEjKuu7KxTygc7v44P+RNDgLFIxjWsMF+6fWuJDfC0ikEaY/57xQ+Iz6mv
WcGiICAz/9DwUuohXfYd5jQf4W2wO6AcMBoGCSqGSIb3DQEJDjENMAswCQYDVR0T
BAIwADAKBggqhkjOPQQDAgNIADBFAiB7y02pLMW0dMXHAut7XT5Pp/QoQNH2mLW5
H+zN72LapgIhAIi11AZHr/GC1dc9d7gNoEeVyra+fIOc45Y2BMXOsfND
-----END CERTIFICATE REQUEST-----
