Certificate Request:
    Data:
        Version: 1 (0x0)
        Subject: C = FR, L = Limoges, O = CRYPTIS, OU = CertifPlus, CN = serveur
        Subject Public Key Info:
            Public Key Algorithm: id-ecPublicKey
                Public-Key: (256 bit)
                pub:
                    04:57:a1:63:50:41:7b:bd:48:da:77:48:d3:f4:27:
                    3a:cc:42:ca:e7:95:ae:b3:2f:c9:59:e6:4c:8a:45:
                    10:64:15:65:7b:64:d4:92:56:e2:bb:2c:92:97:4b:
                    b0:60:1b:02:da:29:20:bb:81:34:c1:a6:a9:ef:2d:
                    f5:2e:8e:bf:e5
                ASN1 OID: prime256v1
                NIST CURVE: P-256
        Attributes:
        Requested Extensions:
            X509v3 Basic Constraints: 
                CA:FALSE
    Signature Algorithm: ecdsa-with-SHA256
         30:44:02:20:2c:20:d8:d1:ff:2e:e2:98:c9:03:b8:fa:aa:77:
         8a:6c:dd:a3:c6:53:ff:40:36:b0:0c:fc:6b:35:e1:0b:3c:5a:
         02:20:74:84:70:01:15:84:cb:74:1c:a9:20:b1:80:16:3d:a8:
         ad:cb:4d:25:f8:4e:67:d4:60:0e:5c:61:0a:e4:2f:90
-----BEGIN CERTIFICATE REQUEST-----
MIIBLjCB1gIBADBYMQswCQYDVQQGEwJGUjEQMA4GA1UEBwwHTGltb2dlczEQMA4G
A1UECgwHQ1JZUFRJUzETMBEGA1UECwwKQ2VydGlmUGx1czEQMA4GA1UEAwwHc2Vy
dmV1cjBZMBMGByqGSM49AgEGCCqGSM49AwEHA0IABFehY1BBe71I2ndI0/QnOsxC
yueVrrMvyVnmTIpFEGQVZXtk1JJW4rsskpdLsGAbAtopILuBNMGmqe8t9S6Ov+Wg
HDAaBgkqhkiG9w0BCQ4xDTALMAkGA1UdEwQCMAAwCgYIKoZIzj0EAwIDRwAwRAIg
LCDY0f8u4pjJA7j6qneKbN2jxlP/QDawDPxrNeELPFoCIHSEcAEVhMt0HKkgsYAW
Paity00l+E5n1GAOXGEK5C+Q
-----END CERTIFICATE REQUEST-----
