Certificate:
    Data:
        Version: 3 (0x2)
        Serial Number:
            24:03:90:8c:4e:5a:64:5e:2a:27:c5:b5:30:79:e2:7d:33:de:66:65
        Signature Algorithm: ecdsa-with-SHA256
        Issuer: C = FR, L = Limoges, O = CRYPTIS, OU = CertifPlus, CN = AC_CertifPlus
        Validity
            Not Before: Apr  5 20:35:50 2022 GMT
            Not After : Apr  5 20:35:50 2023 GMT
        Subject: C = FR, L = Limoges, O = CRYPTIS, OU = CertifPlus, CN = serveur
        Subject Public Key Info:
            Public Key Algorithm: id-ecPublicKey
                Public-Key: (256 bit)
                pub:
                    04:57:a1:63:50:41:7b:bd:48:da:77:48:d3:f4:27:
                    3a:cc:42:ca:e7:95:ae:b3:2f:c9:59:e6:4c:8a:45:
                    10:64:15:65:7b:64:d4:92:56:e2:bb:2c:92:97:4b:
                    b0:60:1b:02:da:29:20:bb:81:34:c1:a6:a9:ef:2d:
                    f5:2e:8e:bf:e5
                ASN1 OID: prime256v1
                NIST CURVE: P-256
        X509v3 extensions:
            X509v3 Basic Constraints: critical
                CA:FALSE
    Signature Algorithm: ecdsa-with-SHA256
         30:44:02:20:60:f0:60:77:10:4f:30:18:7c:0d:c5:a9:2c:40:
         8d:40:45:7a:b3:ac:bd:d6:59:a1:1d:1d:7c:93:8a:00:06:39:
         02:20:29:f5:39:9d:26:70:20:07:8f:2d:82:63:a4:be:c4:ff:
         96:bc:5f:8b:d1:36:eb:f3:3c:df:bc:97:68:34:b6:73
-----BEGIN CERTIFICATE-----
MIIBxzCCAW6gAwIBAgIUJAOQjE5aZF4qJ8W1MHnifTPeZmUwCgYIKoZIzj0EAwIw
XjELMAkGA1UEBhMCRlIxEDAOBgNVBAcMB0xpbW9nZXMxEDAOBgNVBAoMB0NSWVBU
SVMxEzARBgNVBAsMCkNlcnRpZlBsdXMxFjAUBgNVBAMMDUFDX0NlcnRpZlBsdXMw
HhcNMjIwNDA1MjAzNTUwWhcNMjMwNDA1MjAzNTUwWjBYMQswCQYDVQQGEwJGUjEQ
MA4GA1UEBwwHTGltb2dlczEQMA4GA1UECgwHQ1JZUFRJUzETMBEGA1UECwwKQ2Vy
dGlmUGx1czEQMA4GA1UEAwwHc2VydmV1cjBZMBMGByqGSM49AgEGCCqGSM49AwEH
A0IABFehY1BBe71I2ndI0/QnOsxCyueVrrMvyVnmTIpFEGQVZXtk1JJW4rsskpdL
sGAbAtopILuBNMGmqe8t9S6Ov+WjEDAOMAwGA1UdEwEB/wQCMAAwCgYIKoZIzj0E
AwIDRwAwRAIgYPBgdxBPMBh8DcWpLECNQEV6s6y91lmhHR18k4oABjkCICn1OZ0m
cCAHjy2CY6S+xP+WvF+L0Tbr8zzfvJdoNLZz
-----END CERTIFICATE-----
