Certificate:
    Data:
        Version: 3 (0x2)
        Serial Number:
            6c:87:af:35:25:a4:d6:ff:70:b1:fe:d0:b3:e5:4f:e9:df:d9:e2:dc
        Signature Algorithm: ecdsa-with-SHA256
        Issuer: C = Fr, ST = France, L = Limoges, O = Certif Plus, OU = Service de certification, CN = localhost, emailAddress = Dupont@unilim.fr
        Validity
            Not Before: Apr 13 20:44:29 2022 GMT
            Not After : May 13 20:44:29 2022 GMT
        Subject: C = Fr, ST = France, L = Limoges, O = Certif Plus, OU = Service de certification, CN = localhost, emailAddress = Dupont@unilim.fr
        Subject Public Key Info:
            Public Key Algorithm: id-ecPublicKey
                Public-Key: (256 bit)
                pub:
                    04:8f:47:4e:83:03:44:1e:f4:b1:82:b4:b5:d5:f8:
                    2a:db:aa:95:0a:c7:8b:ec:53:ee:bc:93:c6:59:d6:
                    48:f5:92:12:93:e0:de:f7:46:f8:fe:24:72:db:6e:
                    ff:f4:ca:07:91:22:11:4e:33:e2:0d:49:48:45:80:
                    db:37:ff:67:c9
                ASN1 OID: prime256v1
                NIST CURVE: P-256
        X509v3 extensions:
            X509v3 Basic Constraints: critical
                CA:TRUE
            X509v3 Subject Key Identifier: 
                EB:34:3E:43:B7:C3:1B:9C:AD:62:A5:6E:B4:AA:22:2D:DF:6D:69:83
    Signature Algorithm: ecdsa-with-SHA256
         30:45:02:21:00:b3:e1:ae:42:05:a8:13:95:f4:9d:31:55:6d:
         6f:1b:32:27:6d:26:f5:07:e2:56:ea:ef:f1:f9:5c:3c:92:80:
         e0:02:20:24:95:d2:4d:16:b1:53:f6:23:c8:84:e6:c1:80:64:
         cf:80:8f:63:5d:1b:24:7a:50:e6:d5:ba:7d:df:a2:f9:e9
-----BEGIN CERTIFICATE-----
MIICcjCCAhigAwIBAgIUbIevNSWk1v9wsf7Qs+VP6d/Z4twwCgYIKoZIzj0EAwIw
gZ4xCzAJBgNVBAYTAkZyMQ8wDQYDVQQIEwZGcmFuY2UxEDAOBgNVBAcTB0xpbW9n
ZXMxFDASBgNVBAoTC0NlcnRpZiBQbHVzMSEwHwYDVQQLExhTZXJ2aWNlIGRlIGNl
cnRpZmljYXRpb24xEjAQBgNVBAMTCWxvY2FsaG9zdDEfMB0GCSqGSIb3DQEJARYQ
RHVwb250QHVuaWxpbS5mcjAeFw0yMjA0MTMyMDQ0MjlaFw0yMjA1MTMyMDQ0Mjla
MIGeMQswCQYDVQQGEwJGcjEPMA0GA1UECBMGRnJhbmNlMRAwDgYDVQQHEwdMaW1v
Z2VzMRQwEgYDVQQKEwtDZXJ0aWYgUGx1czEhMB8GA1UECxMYU2VydmljZSBkZSBj
ZXJ0aWZpY2F0aW9uMRIwEAYDVQQDEwlsb2NhbGhvc3QxHzAdBgkqhkiG9w0BCQEW
EER1cG9udEB1bmlsaW0uZnIwWTATBgcqhkjOPQIBBggqhkjOPQMBBwNCAASPR06D
A0Qe9LGCtLXV+CrbqpUKx4vsU+68k8ZZ1kj1khKT4N73Rvj+JHLbbv/0ygeRIhFO
M+INSUhFgNs3/2fJozIwMDAPBgNVHRMBAf8EBTADAQH/MB0GA1UdDgQWBBTrND5D
t8MbnK1ipW60qiIt321pgzAKBggqhkjOPQQDAgNIADBFAiEAs+GuQgWoE5X0nTFV
bW8bMidtJvUH4lbq7/H5XDySgOACICSV0k0WsVP2I8iE5sGAZM+Aj2NdGyR6UObV
un3fovnp
-----END CERTIFICATE-----
