Certificate:
    Data:
        Version: 3 (0x2)
        Serial Number:
            08:ba:cc:ed:cb:c0:1a:be:39:87:5d:b7:50:71:c2:e8:3b:2f:48:52
        Signature Algorithm: ecdsa-with-SHA256
        Issuer: C = Fr, ST = France, L = Paris, O = CertifPlus, OU = Service de certifPlus, CN = localhost, emailAddress = certifplus@plus.com
        Validity
            Not Before: May  1 13:02:01 2022 GMT
            Not After : May 31 13:02:01 2022 GMT
        Subject: C = Fr, ST = France, L = Paris, O = CertifPlus, OU = Service de certifPlus, CN = localhost, emailAddress = certifplus@plus.com
        Subject Public Key Info:
            Public Key Algorithm: id-ecPublicKey
                Public-Key: (256 bit)
                pub:
                    04:85:9e:fc:3e:1f:ec:c8:c3:9c:a8:82:f4:51:e9:
                    f5:e3:a3:bd:81:95:8f:62:71:56:29:10:e6:34:f5:
                    77:89:1a:06:c9:62:b8:25:91:17:5d:45:cd:c5:7e:
                    dc:85:38:69:67:3a:8f:b8:54:c7:55:1e:25:8b:91:
                    6a:7d:5f:90:b3
                ASN1 OID: prime256v1
                NIST CURVE: P-256
        X509v3 extensions:
            X509v3 Basic Constraints: critical
                CA:TRUE
            X509v3 Subject Key Identifier: 
                6C:E4:94:0E:AF:4C:EB:BA:B7:40:C6:88:C5:67:FD:1F:72:EE:D5:5E
    Signature Algorithm: ecdsa-with-SHA256
         30:45:02:21:00:b6:02:0d:0e:0c:f4:ad:d5:e4:c0:11:3b:d2:
         39:ff:03:3a:0a:91:7d:25:ef:c7:3c:c5:e9:ae:10:08:17:6a:
         ec:02:20:5a:fb:ba:76:8a:96:b8:77:df:c3:21:0f:3b:6e:32:
         bb:f9:fd:cc:db:4d:33:2e:49:7d:96:1e:0c:65:84:79:d1
-----BEGIN CERTIFICATE-----
MIICbDCCAhKgAwIBAgIUCLrM7cvAGr45h123UHHC6DsvSFIwCgYIKoZIzj0EAwIw
gZsxCzAJBgNVBAYTAkZyMQ8wDQYDVQQIEwZGcmFuY2UxDjAMBgNVBAcTBVBhcmlz
MRMwEQYDVQQKEwpDZXJ0aWZQbHVzMR4wHAYDVQQLExVTZXJ2aWNlIGRlIGNlcnRp
ZlBsdXMxEjAQBgNVBAMTCWxvY2FsaG9zdDEiMCAGCSqGSIb3DQEJARYTY2VydGlm
cGx1c0BwbHVzLmNvbTAeFw0yMjA1MDExMzAyMDFaFw0yMjA1MzExMzAyMDFaMIGb
MQswCQYDVQQGEwJGcjEPMA0GA1UECBMGRnJhbmNlMQ4wDAYDVQQHEwVQYXJpczET
MBEGA1UEChMKQ2VydGlmUGx1czEeMBwGA1UECxMVU2VydmljZSBkZSBjZXJ0aWZQ
bHVzMRIwEAYDVQQDEwlsb2NhbGhvc3QxIjAgBgkqhkiG9w0BCQEWE2NlcnRpZnBs
dXNAcGx1cy5jb20wWTATBgcqhkjOPQIBBggqhkjOPQMBBwNCAASFnvw+H+zIw5yo
gvRR6fXjo72BlY9icVYpEOY09XeJGgbJYrglkRddRc3FftyFOGlnOo+4VMdVHiWL
kWp9X5CzozIwMDAPBgNVHRMBAf8EBTADAQH/MB0GA1UdDgQWBBRs5JQOr0zrurdA
xojFZ/0fcu7VXjAKBggqhkjOPQQDAgNIADBFAiEAtgINDgz0rdXkwBE70jn/AzoK
kX0l78c8xemuEAgXauwCIFr7unaKlrh338MhDztuMrv5/czbTTMuSX2WHgxlhHnR
-----END CERTIFICATE-----
