Certificate:
    Data:
        Version: 3 (0x2)
        Serial Number:
            7a:06:47:d2:5f:6d:13:10:e2:0f:fd:cd:4b:db:36:73:a1:c2:7e:db
        Signature Algorithm: ecdsa-with-SHA256
        Issuer: C = Fr, ST = France, L = Paris, O = CertifPlus, OU = Service de certifPlus, CN = localhost, emailAddress = certifplus@plus.com
        Validity
            Not Before: May  1 13:02:21 2022 GMT
            Not After : Apr 28 13:02:21 2032 GMT
        Subject: C = FR, L = Limoges, O = CRYPTIS, OU = SecuTIC, CN = localhost
        Subject Public Key Info:
            Public Key Algorithm: id-ecPublicKey
                Public-Key: (256 bit)
                pub:
                    04:ef:d3:cc:e3:0e:a3:51:a1:93:e6:57:d0:06:1a:
                    d6:3b:78:32:e0:86:1f:23:56:57:b3:59:7c:8e:dd:
                    70:58:a9:df:5a:fa:57:01:b0:ad:f8:2c:87:e9:a2:
                    db:82:f7:36:00:9b:a6:a6:17:8c:c9:f3:08:da:a0:
                    4f:2a:8a:ef:4e
                ASN1 OID: prime256v1
                NIST CURVE: P-256
        X509v3 extensions:
            X509v3 Basic Constraints: critical
                CA:FALSE
    Signature Algorithm: ecdsa-with-SHA256
         30:45:02:21:00:8a:c1:54:f0:00:9f:59:33:66:8e:18:f3:af:
         37:80:3c:8d:03:5b:b9:0c:6b:72:ca:7c:a7:15:1c:0b:05:31:
         18:02:20:3a:f5:0a:d9:ab:61:b0:7e:1b:78:f1:8b:ad:ff:61:
         bd:81:ae:df:cb:1e:4e:bc:b4:5a:34:23:da:44:6d:91:80
-----BEGIN CERTIFICATE-----
MIICBTCCAaugAwIBAgIUegZH0l9tExDiD/3NS9s2c6HCftswCgYIKoZIzj0EAwIw
gZsxCzAJBgNVBAYTAkZyMQ8wDQYDVQQIEwZGcmFuY2UxDjAMBgNVBAcTBVBhcmlz
MRMwEQYDVQQKEwpDZXJ0aWZQbHVzMR4wHAYDVQQLExVTZXJ2aWNlIGRlIGNlcnRp
ZlBsdXMxEjAQBgNVBAMTCWxvY2FsaG9zdDEiMCAGCSqGSIb3DQEJARYTY2VydGlm
cGx1c0BwbHVzLmNvbTAeFw0yMjA1MDExMzAyMjFaFw0zMjA0MjgxMzAyMjFaMFcx
CzAJBgNVBAYTAkZSMRAwDgYDVQQHDAdMaW1vZ2VzMRAwDgYDVQQKDAdDUllQVElT
MRAwDgYDVQQLDAdTZWN1VElDMRIwEAYDVQQDDAlsb2NhbGhvc3QwWTATBgcqhkjO
PQIBBggqhkjOPQMBBwNCAATv08zjDqNRoZPmV9AGGtY7eDLghh8jVlezWXyO3XBY
qd9a+lcBsK34LIfpotuC9zYAm6amF4zJ8wjaoE8qiu9OoxAwDjAMBgNVHRMBAf8E
AjAAMAoGCCqGSM49BAMCA0gAMEUCIQCKwVTwAJ9ZM2aOGPOvN4A8jQNbuQxrcsp8
pxUcCwUxGAIgOvUK2athsH4bePGLrf9hvYGu38seTry0WjQj2kRtkYA=
-----END CERTIFICATE-----
