Certificate:
    Data:
        Version: 3 (0x2)
        Serial Number:
            7a:06:47:d2:5f:6d:13:10:e2:0f:fd:cd:4b:db:36:73:a1:c2:7e:da
        Signature Algorithm: ecdsa-with-SHA256
        Issuer: C = Fr, ST = France, L = Paris, O = CertifPlus, OU = Service de certifPlus, CN = localhost, emailAddress = certifplus@plus.com
        Validity
            Not Before: May  1 13:02:17 2022 GMT
            Not After : Apr 28 13:02:17 2032 GMT
        Subject: C = FR, L = Limoges, O = CRYPTIS, OU = SecuTIC, CN = signature
        Subject Public Key Info:
            Public Key Algorithm: id-ecPublicKey
                Public-Key: (256 bit)
                pub:
                    04:44:d9:a1:21:11:40:ea:1b:c8:a7:de:38:a6:aa:
                    d2:20:de:28:9b:02:a6:1d:c3:9f:1f:38:ed:d8:03:
                    47:f8:79:20:c9:54:6e:f4:d7:98:b5:b4:85:e4:4f:
                    3f:bc:3f:07:0f:ff:62:4f:f4:70:1d:9f:8a:3c:c9:
                    d6:7b:47:36:d4
                ASN1 OID: prime256v1
                NIST CURVE: P-256
        X509v3 extensions:
            X509v3 Basic Constraints: critical
                CA:FALSE
    Signature Algorithm: ecdsa-with-SHA256
         30:45:02:21:00:bf:37:80:ec:fe:04:a4:f2:17:a7:f0:49:52:
         98:2e:be:1d:ae:bc:11:ea:f2:bf:e6:27:df:bb:64:9c:8b:36:
         dd:02:20:60:5b:cb:8f:0a:6a:4f:78:0d:a4:14:dd:86:1c:4b:
         ab:bb:4f:9b:21:b2:0d:58:85:69:5f:e9:ff:f7:9b:25:d0
-----BEGIN CERTIFICATE-----
MIICBTCCAaugAwIBAgIUegZH0l9tExDiD/3NS9s2c6HCftowCgYIKoZIzj0EAwIw
gZsxCzAJBgNVBAYTAkZyMQ8wDQYDVQQIEwZGcmFuY2UxDjAMBgNVBAcTBVBhcmlz
MRMwEQYDVQQKEwpDZXJ0aWZQbHVzMR4wHAYDVQQLExVTZXJ2aWNlIGRlIGNlcnRp
ZlBsdXMxEjAQBgNVBAMTCWxvY2FsaG9zdDEiMCAGCSqGSIb3DQEJARYTY2VydGlm
cGx1c0BwbHVzLmNvbTAeFw0yMjA1MDExMzAyMTdaFw0zMjA0MjgxMzAyMTdaMFcx
CzAJBgNVBAYTAkZSMRAwDgYDVQQHDAdMaW1vZ2VzMRAwDgYDVQQKDAdDUllQVElT
MRAwDgYDVQQLDAdTZWN1VElDMRIwEAYDVQQDDAlzaWduYXR1cmUwWTATBgcqhkjO
PQIBBggqhkjOPQMBBwNCAARE2aEhEUDqG8in3jimqtIg3iibAqYdw58fOO3YA0f4
eSDJVG7015i1tIXkTz+8PwcP/2JP9HAdn4o8ydZ7RzbUoxAwDjAMBgNVHRMBAf8E
AjAAMAoGCCqGSM49BAMCA0gAMEUCIQC/N4Ds/gSk8hen8ElSmC6+Ha68Eeryv+Yn
37tknIs23QIgYFvLjwpqT3gNpBTdhhxLq7tPmyGyDViFaV/p//ebJdA=
-----END CERTIFICATE-----
