Certificate:
    Data:
        Version: 3 (0x2)
        Serial Number:
            46:01:3b:bc:b7:b2:46:06:ab:a2:3e:d0:61:d4:d9:70:a0:ad:ce:df
        Signature Algorithm: ecdsa-with-SHA256
        Issuer: C = Fr, ST = France, L = Limoges, O = Certif Plus, OU = Service de certification, CN = localhost, emailAddress = Dupont@unilim.fr
        Validity
            Not Before: Apr 13 20:44:34 2022 GMT
            Not After : Apr 10 20:44:34 2032 GMT
        Subject: C = FR, L = Limoges, O = CRYPTIS, OU = SecuTIC, CN = localhost
        Subject Public Key Info:
            Public Key Algorithm: id-ecPublicKey
                Public-Key: (256 bit)
                pub:
                    04:c5:f4:1f:ae:bb:55:86:57:7a:dc:cb:24:27:31:
                    0c:99:44:fb:c4:43:0e:a2:bd:6c:dd:27:23:89:79:
                    08:5b:fa:c7:ce:30:ae:be:34:11:eb:56:d0:3d:10:
                    be:b8:16:66:cb:d5:f7:48:2b:92:5d:2f:ab:9d:28:
                    ec:7c:f0:36:b2
                ASN1 OID: prime256v1
                NIST CURVE: P-256
        X509v3 extensions:
            X509v3 Basic Constraints: critical
                CA:FALSE
    Signature Algorithm: ecdsa-with-SHA256
         30:45:02:21:00:dd:98:73:95:8c:00:70:54:b4:0c:47:de:9b:
         ce:28:51:d2:c3:64:ce:12:cb:6b:a8:c2:57:f9:43:e8:99:76:
         d9:02:20:6f:8f:65:d2:d5:23:dc:b8:58:f4:98:85:bc:19:db:
         dc:93:04:45:07:0e:c9:88:fb:d6:82:b4:03:a2:f4:64:fe
-----BEGIN CERTIFICATE-----
MIICCDCCAa6gAwIBAgIURgE7vLeyRgaroj7QYdTZcKCtzt8wCgYIKoZIzj0EAwIw
gZ4xCzAJBgNVBAYTAkZyMQ8wDQYDVQQIEwZGcmFuY2UxEDAOBgNVBAcTB0xpbW9n
ZXMxFDASBgNVBAoTC0NlcnRpZiBQbHVzMSEwHwYDVQQLExhTZXJ2aWNlIGRlIGNl
cnRpZmljYXRpb24xEjAQBgNVBAMTCWxvY2FsaG9zdDEfMB0GCSqGSIb3DQEJARYQ
RHVwb250QHVuaWxpbS5mcjAeFw0yMjA0MTMyMDQ0MzRaFw0zMjA0MTAyMDQ0MzRa
MFcxCzAJBgNVBAYTAkZSMRAwDgYDVQQHDAdMaW1vZ2VzMRAwDgYDVQQKDAdDUllQ
VElTMRAwDgYDVQQLDAdTZWN1VElDMRIwEAYDVQQDDAlsb2NhbGhvc3QwWTATBgcq
hkjOPQIBBggqhkjOPQMBBwNCAATF9B+uu1WGV3rcyyQnMQyZRPvEQw6ivWzdJyOJ
eQhb+sfOMK6+NBHrVtA9EL64FmbL1fdIK5JdL6udKOx88DayoxAwDjAMBgNVHRMB
Af8EAjAAMAoGCCqGSM49BAMCA0gAMEUCIQDdmHOVjABwVLQMR96bzihR0sNkzhLL
a6jCV/lD6Jl22QIgb49l0tUj3LhY9JiFvBnb3JMERQcOyYj71oK0A6L0ZP4=
-----END CERTIFICATE-----
