Certificate:
    Data:
        Version: 3 (0x2)
        Serial Number:
            46:01:3b:bc:b7:b2:46:06:ab:a2:3e:d0:61:d4:d9:70:a0:ad:ce:de
        Signature Algorithm: ecdsa-with-SHA256
        Issuer: C = Fr, ST = France, L = Limoges, O = Certif Plus, OU = Service de certification, CN = localhost, emailAddress = Dupont@unilim.fr
        Validity
            Not Before: Apr 13 20:44:34 2022 GMT
            Not After : Apr 10 20:44:34 2032 GMT
        Subject: C = FR, L = Limoges, O = CRYPTIS, OU = SecuTIC, CN = signature
        Subject Public Key Info:
            Public Key Algorithm: id-ecPublicKey
                Public-Key: (256 bit)
                pub:
                    04:aa:1d:87:7f:fe:1d:1c:3b:16:a5:f5:3a:91:82:
                    b1:aa:d4:ec:a3:d2:7c:19:b8:66:df:9a:6b:3b:10:
                    34:09:6f:0b:14:26:52:21:2f:82:0a:5a:df:08:2a:
                    e9:a1:ba:df:a4:0a:cd:56:57:ea:ea:1d:da:85:97:
                    7b:3b:ad:91:2e
                ASN1 OID: prime256v1
                NIST CURVE: P-256
        X509v3 extensions:
            X509v3 Basic Constraints: critical
                CA:FALSE
    Signature Algorithm: ecdsa-with-SHA256
         30:45:02:20:54:1a:1d:a8:9d:79:8b:90:74:1b:75:83:5e:ce:
         1c:c5:ea:66:d9:9b:64:d5:9c:eb:ab:d1:38:a2:f6:15:d3:2d:
         02:21:00:9e:e1:d2:78:04:70:a3:23:c5:b3:b0:c2:c6:33:21:
         40:d6:86:1f:51:b0:0e:74:d2:27:a7:26:e3:8c:71:b9:8d
-----BEGIN CERTIFICATE-----
MIICCDCCAa6gAwIBAgIURgE7vLeyRgaroj7QYdTZcKCtzt4wCgYIKoZIzj0EAwIw
gZ4xCzAJBgNVBAYTAkZyMQ8wDQYDVQQIEwZGcmFuY2UxEDAOBgNVBAcTB0xpbW9n
ZXMxFDASBgNVBAoTC0NlcnRpZiBQbHVzMSEwHwYDVQQLExhTZXJ2aWNlIGRlIGNl
cnRpZmljYXRpb24xEjAQBgNVBAMTCWxvY2FsaG9zdDEfMB0GCSqGSIb3DQEJARYQ
RHVwb250QHVuaWxpbS5mcjAeFw0yMjA0MTMyMDQ0MzRaFw0zMjA0MTAyMDQ0MzRa
MFcxCzAJBgNVBAYTAkZSMRAwDgYDVQQHDAdMaW1vZ2VzMRAwDgYDVQQKDAdDUllQ
VElTMRAwDgYDVQQLDAdTZWN1VElDMRIwEAYDVQQDDAlzaWduYXR1cmUwWTATBgcq
hkjOPQIBBggqhkjOPQMBBwNCAASqHYd//h0cOxal9TqRgrGq1Oyj0nwZuGbfmms7
EDQJbwsUJlIhL4IKWt8IKumhut+kCs1WV+rqHdqFl3s7rZEuoxAwDjAMBgNVHRMB
Af8EAjAAMAoGCCqGSM49BAMCA0gAMEUCIFQaHaideYuQdBt1g17OHMXqZtmbZNWc
66vROKL2FdMtAiEAnuHSeARwoyPFs7DCxjMhQNaGH1GwDnTSJ6cm44xxuY0=
-----END CERTIFICATE-----
