Certificate Request:
    Data:
        Version: 1 (0x0)
        Subject: C = FR, L = Limoges, O = CRYPTIS, OU = SecuTIC, CN = localhost
        Subject Public Key Info:
            Public Key Algorithm: id-ecPublicKey
                Public-Key: (256 bit)
                pub:
                    04:ef:d3:cc:e3:0e:a3:51:a1:93:e6:57:d0:06:1a:
                    d6:3b:78:32:e0:86:1f:23:56:57:b3:59:7c:8e:dd:
                    70:58:a9:df:5a:fa:57:01:b0:ad:f8:2c:87:e9:a2:
                    db:82:f7:36:00:9b:a6:a6:17:8c:c9:f3:08:da:a0:
                    4f:2a:8a:ef:4e
                ASN1 OID: prime256v1
                NIST CURVE: P-256
        Attributes:
        Requested Extensions:
            X509v3 Basic Constraints: 
                CA:FALSE
    Signature Algorithm: ecdsa-with-SHA256
         30:46:02:21:00:86:d4:8d:e6:61:c8:5e:f6:23:e0:0b:01:fa:
         27:5d:99:03:b4:7c:a8:a3:8d:a5:22:5f:57:c3:24:c3:9c:99:
         46:02:21:00:b0:ae:7b:51:a7:72:50:0e:d2:ac:e3:81:39:3d:
         9c:b4:5c:93:60:9f:b3:87:62:ac:aa:e5:b1:79:a0:b1:5f:0f
-----BEGIN CERTIFICATE REQUEST-----
MIIBLzCB1QIBADBXMQswCQYDVQQGEwJGUjEQMA4GA1UEBwwHTGltb2dlczEQMA4G
A1UECgwHQ1JZUFRJUzEQMA4GA1UECwwHU2VjdVRJQzESMBAGA1UEAwwJbG9jYWxo
b3N0MFkwEwYHKoZIzj0CAQYIKoZIzj0DAQcDQgAE79PM4w6jUaGT5lfQBhrWO3gy
4IYfI1ZXs1l8jt1wWKnfWvpXAbCt+CyH6aLbgvc2AJumpheMyfMI2qBPKorvTqAc
MBoGCSqGSIb3DQEJDjENMAswCQYDVR0TBAIwADAKBggqhkjOPQQDAgNJADBGAiEA
htSN5mHIXvYj4AsB+iddmQO0fKijjaUiX1fDJMOcmUYCIQCwrntRp3JQDtKs44E5
PZy0XJNgn7OHYqyq5bF5oLFfDw==
-----END CERTIFICATE REQUEST-----
