Certificate Request:
    Data:
        Version: 1 (0x0)
        Subject: C = FR, L = Limoges, O = CRYPTIS, OU = SecuTIC, CN = localhost
        Subject Public Key Info:
            Public Key Algorithm: id-ecPublicKey
                Public-Key: (256 bit)
                pub:
                    04:c5:f4:1f:ae:bb:55:86:57:7a:dc:cb:24:27:31:
                    0c:99:44:fb:c4:43:0e:a2:bd:6c:dd:27:23:89:79:
                    08:5b:fa:c7:ce:30:ae:be:34:11:eb:56:d0:3d:10:
                    be:b8:16:66:cb:d5:f7:48:2b:92:5d:2f:ab:9d:28:
                    ec:7c:f0:36:b2
                ASN1 OID: prime256v1
                NIST CURVE: P-256
        Attributes:
        Requested Extensions:
            X509v3 Basic Constraints: 
                CA:FALSE
    Signature Algorithm: ecdsa-with-SHA256
         30:44:02:20:7b:3e:b6:35:e8:55:e8:34:c0:e4:ff:eb:7b:ef:
         4d:ca:8e:4d:ad:ce:0a:33:7e:d8:85:9a:c8:69:3a:23:75:3e:
         02:20:7f:6a:88:5c:02:a2:e2:59:6b:d2:a6:f0:a3:58:56:61:
         44:b0:d4:68:ce:9f:52:b6:82:a8:11:40:f7:19:e3:d8
-----BEGIN CERTIFICATE REQUEST-----
MIIBLTCB1QIBADBXMQswCQYDVQQGEwJGUjEQMA4GA1UEBwwHTGltb2dlczEQMA4G
A1UECgwHQ1JZUFRJUzEQMA4GA1UECwwHU2VjdVRJQzESMBAGA1UEAwwJbG9jYWxo
b3N0MFkwEwYHKoZIzj0CAQYIKoZIzj0DAQcDQgAExfQfrrtVhld63MskJzEMmUT7
xEMOor1s3ScjiXkIW/rHzjCuvjQR61bQPRC+uBZmy9X3SCuSXS+rnSjsfPA2sqAc
MBoGCSqGSIb3DQEJDjENMAswCQYDVR0TBAIwADAKBggqhkjOPQQDAgNHADBEAiB7
PrY16FXoNMDk/+t7703Kjk2tzgozftiFmshpOiN1PgIgf2qIXAKi4llr0qbwo1hW
YUSw1GjOn1K2gqgRQPcZ49g=
-----END CERTIFICATE REQUEST-----
