Certificate Request:
    Data:
        Version: 1 (0x0)
        Subject: C = FR, L = Limoges, O = CRYPTIS, OU = SecuTIC, CN = signature
        Subject Public Key Info:
            Public Key Algorithm: id-ecPublicKey
                Public-Key: (256 bit)
                pub:
                    04:44:d9:a1:21:11:40:ea:1b:c8:a7:de:38:a6:aa:
                    d2:20:de:28:9b:02:a6:1d:c3:9f:1f:38:ed:d8:03:
                    47:f8:79:20:c9:54:6e:f4:d7:98:b5:b4:85:e4:4f:
                    3f:bc:3f:07:0f:ff:62:4f:f4:70:1d:9f:8a:3c:c9:
                    d6:7b:47:36:d4
                ASN1 OID: prime256v1
                NIST CURVE: P-256
        Attributes:
        Requested Extensions:
            X509v3 Basic Constraints: 
                CA:FALSE
    Signature Algorithm: ecdsa-with-SHA256
         30:45:02:21:00:ef:3b:8b:a6:72:38:db:75:51:2c:5d:1a:a2:
         3f:93:5d:d6:ae:de:ac:b8:46:77:86:72:f7:a6:45:14:e2:19:
         4d:02:20:29:05:63:58:e7:51:a4:c1:0a:55:d9:df:0c:a9:c0:
         7a:52:5c:23:d1:3d:ef:26:6c:53:b0:71:c9:aa:39:c6:af
-----BEGIN CERTIFICATE REQUEST-----
MIIBLjCB1QIBADBXMQswCQYDVQQGEwJGUjEQMA4GA1UEBwwHTGltb2dlczEQMA4G
A1UECgwHQ1JZUFRJUzEQMA4GA1UECwwHU2VjdVRJQzESMBAGA1UEAwwJc2lnbmF0
dXJlMFkwEwYHKoZIzj0CAQYIKoZIzj0DAQcDQgAERNmhIRFA6hvIp944pqrSIN4o
mwKmHcOfHzjt2ANH+HkgyVRu9NeYtbSF5E8/vD8HD/9iT/RwHZ+KPMnWe0c21KAc
MBoGCSqGSIb3DQEJDjENMAswCQYDVR0TBAIwADAKBggqhkjOPQQDAgNIADBFAiEA
7zuLpnI423VRLF0aoj+TXdau3qy4RneGcvemRRTiGU0CICkFY1jnUaTBClXZ3wyp
wHpSXCPRPe8mbFOwccmqOcav
-----END CERTIFICATE REQUEST-----
