Certificate Request:
    Data:
        Version: 1 (0x0)
        Subject: C = FR, L = Limoges, O = CRYPTIS, OU = SecuTIC, CN = signature
        Subject Public Key Info:
            Public Key Algorithm: id-ecPublicKey
                Public-Key: (256 bit)
                pub:
                    04:aa:1d:87:7f:fe:1d:1c:3b:16:a5:f5:3a:91:82:
                    b1:aa:d4:ec:a3:d2:7c:19:b8:66:df:9a:6b:3b:10:
                    34:09:6f:0b:14:26:52:21:2f:82:0a:5a:df:08:2a:
                    e9:a1:ba:df:a4:0a:cd:56:57:ea:ea:1d:da:85:97:
                    7b:3b:ad:91:2e
                ASN1 OID: prime256v1
                NIST CURVE: P-256
        Attributes:
        Requested Extensions:
            X509v3 Basic Constraints: 
                CA:FALSE
    Signature Algorithm: ecdsa-with-SHA256
         30:46:02:21:00:9e:b2:f6:85:6b:a7:cc:33:a4:b0:28:38:05:
         e8:ab:52:20:d0:bd:86:a6:5e:40:54:3e:63:45:c2:b0:1a:8e:
         2a:02:21:00:d3:c6:12:b2:77:eb:47:01:25:7e:5d:0f:3a:83:
         57:06:0e:02:64:b8:76:ff:32:d7:73:0b:7f:6e:3b:10:47:e1
-----BEGIN CERTIFICATE REQUEST-----
MIIBLzCB1QIBADBXMQswCQYDVQQGEwJGUjEQMA4GA1UEBwwHTGltb2dlczEQMA4G
A1UECgwHQ1JZUFRJUzEQMA4GA1UECwwHU2VjdVRJQzESMBAGA1UEAwwJc2lnbmF0
dXJlMFkwEwYHKoZIzj0CAQYIKoZIzj0DAQcDQgAEqh2Hf/4dHDsWpfU6kYKxqtTs
o9J8Gbhm35prOxA0CW8LFCZSIS+CClrfCCrpobrfpArNVlfq6h3ahZd7O62RLqAc
MBoGCSqGSIb3DQEJDjENMAswCQYDVR0TBAIwADAKBggqhkjOPQQDAgNJADBGAiEA
nrL2hWunzDOksCg4BeirUiDQvYamXkBUPmNFwrAajioCIQDTxhKyd+tHASV+XQ86
g1cGDgJkuHb/MtdzC39uOxBH4Q==
-----END CERTIFICATE REQUEST-----
